; Function Attrs: mustprogress nofree norecurse nosync nounwind willreturn memory(argmem: readwrite) uwtable
define void @_ZN5arrow8internal7TDigestC2EOS1_(ptr noundef nonnull writeonly align 8 captures(none) dereferenceable(32) initializes((0, 32)) %0, ptr noundef nonnull align 8 captures(none) dereferenceable(32) %1) unnamed_addr #8 align 2 {
  %3 = load ptr, ptr %1, align 8, !tbaa !11
  store ptr %3, ptr %0, align 8, !tbaa !11
  %4 = getelementptr inbounds nuw i8, ptr %0, i64 8
  %5 = getelementptr inbounds nuw i8, ptr %1, i64 8
  %6 = load ptr, ptr %5, align 8, !tbaa !12
  store ptr %6, ptr %4, align 8, !tbaa !12
  %7 = getelementptr inbounds nuw i8, ptr %0, i64 16
  %8 = getelementptr inbounds nuw i8, ptr %1, i64 16
  %9 = load ptr, ptr %8, align 8, !tbaa !8
  store ptr %9, ptr %7, align 8, !tbaa !8
  tail call void @llvm.memset.p0.i64(ptr noundef nonnull align 8 dereferenceable(24) %1, i8 0, i64 24, i1 false)
  %10 = getelementptr inbounds nuw i8, ptr %0, i64 24
  %11 = getelementptr inbounds nuw i8, ptr %1, i64 24
  %12 = load i64, ptr %11, align 8, !tbaa !3
  store i64 %12, ptr %10, align 8, !tbaa !3
  store ptr null, ptr %11, align 8, !tbaa !3
  ret void
}